target datalayout = "e-m:e-p270:32:32-p271:32:32-p272:64:64-i64:64-i128:128-f80:128-n8:16:32:64-S128"
target triple = "x86_64-pc-linux-gnu"

@.str = private unnamed_addr constant [8 x i8] c" %4d : \00", align 1
@.str.1 = private unnamed_addr constant [2 x i8] c"0\00", align 1
@.str.2 = private unnamed_addr constant [2 x i8] c"1\00", align 1
@.str.3 = private unnamed_addr constant [2 x i8] c"x\00", align 1
@.str.4 = private unnamed_addr constant [24 x i8] c" (0=%4d, 1=%4d, x=%4d)\0A\00", align 1

; Function Attrs: nounwind uwtable
define internal i32 @Gia_ManTerSimInfoGet(ptr noundef %0, i32 noundef %1) #0 {
  %3 = alloca ptr, align 8
  %4 = alloca i32, align 4
  store ptr %0, ptr %3, align 8
  store i32 %1, ptr %4, align 4
  %5 = load ptr, ptr %3, align 8
  %6 = load i32, ptr %4, align 4
  %7 = ashr i32 %6, 4
  %8 = sext i32 %7 to i64
  %9 = getelementptr inbounds i32, ptr %5, i64 %8
  %10 = load i32, ptr %9, align 4
  %11 = load i32, ptr %4, align 4
  %12 = and i32 %11, 15
  %13 = shl i32 %12, 1
  %14 = lshr i32 %10, %13
  %15 = and i32 3, %14
  ret i32 %15
}

; Function Attrs: nounwind uwtable
define void @Gia_ManTerStatePrint(ptr noundef %0, i32 noundef %1, i32 noundef %2) #0 {
  %4 = alloca ptr, align 8
  %5 = alloca i32, align 4
  %6 = alloca i32, align 4
  %7 = alloca i32, align 4
  %8 = alloca i32, align 4
  %9 = alloca i32, align 4
  %10 = alloca i32, align 4
  store ptr %0, ptr %4, align 8
  store i32 %1, ptr %5, align 4
  store i32 %2, ptr %6, align 4
  store i32 0, ptr %8, align 4
  store i32 0, ptr %9, align 4
  store i32 0, ptr %10, align 4
  %11 = load i32, ptr %6, align 4
  %12 = call i32 (ptr, ...) @printf(ptr noundef @.str, i32 noundef %11)
  store i32 0, ptr %7, align 4
  br label %13

13:                                               ; preds = %48, %3
  %14 = load i32, ptr %7, align 4
  %15 = load i32, ptr %5, align 4
  %16 = icmp slt i32 %14, %15
  br i1 %16, label %17, label %51

17:                                               ; preds = %13
  %18 = load ptr, ptr %4, align 8
  %19 = load i32, ptr %7, align 4
  %20 = call i32 @Gia_ManTerSimInfoGet(ptr noundef %18, i32 noundef %19)
  %21 = icmp eq i32 %20, 1
  br i1 %21, label %22, label %26

22:                                               ; preds = %17
  %23 = call i32 (ptr, ...) @printf(ptr noundef @.str.1)
  %24 = load i32, ptr %8, align 4
  %25 = add nsw i32 %24, 1
  store i32 %25, ptr %8, align 4
  br label %47

26:                                               ; preds = %17
  %27 = load ptr, ptr %4, align 8
  %28 = load i32, ptr %7, align 4
  %29 = call i32 @Gia_ManTerSimInfoGet(ptr noundef %27, i32 noundef %28)
  %30 = icmp eq i32 %29, 2
  br i1 %30, label %31, label %35

31:                                               ; preds = %26
  %32 = call i32 (ptr, ...) @printf(ptr noundef @.str.2)
  %33 = load i32, ptr %9, align 4
  %34 = add nsw i32 %33, 1
  store i32 %34, ptr %9, align 4
  br label %46

35:                                               ; preds = %26
  %36 = load ptr, ptr %4, align 8
  %37 = load i32, ptr %7, align 4
  %38 = call i32 @Gia_ManTerSimInfoGet(ptr noundef %36, i32 noundef %37)
  %39 = icmp eq i32 %38, 3
  br i1 %39, label %40, label %44

40:                                               ; preds = %35
  %41 = call i32 (ptr, ...) @printf(ptr noundef @.str.3)
  %42 = load i32, ptr %10, align 4
  %43 = add nsw i32 %42, 1
  store i32 %43, ptr %10, align 4
  br label %45

44:                                               ; preds = %35
  br label %45

45:                                               ; preds = %44, %40
  br label %46

46:                                               ; preds = %45, %31
  br label %47

47:                                               ; preds = %46, %22
  br label %48

48:                                               ; preds = %47
  %49 = load i32, ptr %7, align 4
  %50 = add nsw i32 %49, 1
  store i32 %50, ptr %7, align 4
  br label %13, !llvm.loop !16

51:                                               ; preds = %13
  %52 = load i32, ptr %8, align 4
  %53 = load i32, ptr %9, align 4
  %54 = load i32, ptr %10, align 4
  %55 = call i32 (ptr, ...) @printf(ptr noundef @.str.4, i32 noundef %52, i32 noundef %53, i32 noundef %54)
  ret void
}